target datalayout = "e-m:e-p270:32:32-p271:32:32-p272:64:64-i64:64-i128:128-f80:128-n8:16:32:64-S128"
target triple = "x86_64-pc-linux-gnu"

%struct.ma_vfs_callbacks = type { ptr, ptr, ptr, ptr, ptr, ptr, ptr, ptr }

; Function Attrs: nounwind uwtable
define internal i32 @ma_default_vfs_seek__stdio(ptr noundef %0, ptr noundef %1, i64 noundef %2, i32 noundef %3) #0 {
  %5 = alloca i32, align 4
  %6 = alloca ptr, align 8
  %7 = alloca ptr, align 8
  %8 = alloca i64, align 8
  %9 = alloca i32, align 4
  %10 = alloca i32, align 4
  %11 = alloca i32, align 4
  %12 = alloca i32, align 4
  store ptr %0, ptr %6, align 8, !tbaa !25
  store ptr %1, ptr %7, align 8, !tbaa !25
  store i64 %2, ptr %8, align 8, !tbaa !47
  store i32 %3, ptr %9, align 4, !tbaa !8
  call void @llvm.lifetime.start.p0(i64 4, ptr %10) #16
  call void @llvm.lifetime.start.p0(i64 4, ptr %11) #16
  %13 = load i32, ptr %9, align 4, !tbaa !8
  %14 = icmp eq i32 %13, 0
  br i1 %14, label %15, label %16

15:                                               ; preds = %4
  store i32 0, ptr %11, align 4, !tbaa !8
  br label %22

16:                                               ; preds = %4
  %17 = load i32, ptr %9, align 4, !tbaa !8
  %18 = icmp eq i32 %17, 2
  br i1 %18, label %19, label %20

19:                                               ; preds = %16
  store i32 2, ptr %11, align 4, !tbaa !8
  br label %21

20:                                               ; preds = %16
  store i32 1, ptr %11, align 4, !tbaa !8
  br label %21

21:                                               ; preds = %20, %19
  br label %22

22:                                               ; preds = %21, %15
  %23 = load ptr, ptr %7, align 8, !tbaa !25
  %24 = load i64, ptr %8, align 8, !tbaa !47
  %25 = load i32, ptr %11, align 4, !tbaa !8
  %26 = call i32 @fseek(ptr noundef %23, i64 noundef %24, i32 noundef %25)
  store i32 %26, ptr %10, align 4, !tbaa !8
  %27 = load i32, ptr %10, align 4, !tbaa !8
  %28 = icmp ne i32 %27, 0
  br i1 %28, label %29, label %30

29:                                               ; preds = %22
  store i32 -1, ptr %5, align 4
  store i32 1, ptr %12, align 4
  br label %31

30:                                               ; preds = %22
  store i32 0, ptr %5, align 4
  store i32 1, ptr %12, align 4
  br label %31

31:                                               ; preds = %30, %29
  call void @llvm.lifetime.end.p0(i64 4, ptr %11) #16
  call void @llvm.lifetime.end.p0(i64 4, ptr %10) #16
  %32 = load i32, ptr %5, align 4
  ret i32 %32
}

; Function Attrs: nounwind uwtable
define internal i32 @ma_default_vfs_seek(ptr noundef %0, ptr noundef %1, i64 noundef %2, i32 noundef %3) #0 {
  %5 = alloca i32, align 4
  %6 = alloca ptr, align 8
  %7 = alloca ptr, align 8
  %8 = alloca i64, align 8
  %9 = alloca i32, align 4
  store ptr %0, ptr %6, align 8, !tbaa !25
  store ptr %1, ptr %7, align 8, !tbaa !25
  store i64 %2, ptr %8, align 8, !tbaa !47
  store i32 %3, ptr %9, align 4, !tbaa !8
  %10 = load ptr, ptr %7, align 8, !tbaa !25
  %11 = icmp eq ptr %10, null
  br i1 %11, label %12, label %13

12:                                               ; preds = %4
  store i32 -2, ptr %5, align 4
  br label %19

13:                                               ; preds = %4
  %14 = load ptr, ptr %6, align 8, !tbaa !25
  %15 = load ptr, ptr %7, align 8, !tbaa !25
  %16 = load i64, ptr %8, align 8, !tbaa !47
  %17 = load i32, ptr %9, align 4, !tbaa !8
  %18 = call i32 @ma_default_vfs_seek__stdio(ptr noundef %14, ptr noundef %15, i64 noundef %16, i32 noundef %17)
  store i32 %18, ptr %5, align 4
  br label %19

19:                                               ; preds = %13, %12
  %20 = load i32, ptr %5, align 4
  ret i32 %20
}

; Function Attrs: nounwind uwtable
define i32 @ma_vfs_seek(ptr noundef %0, ptr noundef %1, i64 noundef %2, i32 noundef %3) #0 {
  %5 = alloca i32, align 4
  %6 = alloca ptr, align 8
  %7 = alloca ptr, align 8
  %8 = alloca i64, align 8
  %9 = alloca i32, align 4
  %10 = alloca ptr, align 8
  %11 = alloca i32, align 4
  store ptr %0, ptr %6, align 8, !tbaa !25
  store ptr %1, ptr %7, align 8, !tbaa !25
  store i64 %2, ptr %8, align 8, !tbaa !47
  store i32 %3, ptr %9, align 4, !tbaa !8
  call void @llvm.lifetime.start.p0(i64 8, ptr %10) #16
  %12 = load ptr, ptr %6, align 8, !tbaa !25
  store ptr %12, ptr %10, align 8, !tbaa !25
  %13 = load ptr, ptr %6, align 8, !tbaa !25
  %14 = icmp eq ptr %13, null
  br i1 %14, label %18, label %15

15:                                               ; preds = %4
  %16 = load ptr, ptr %7, align 8, !tbaa !25
  %17 = icmp eq ptr %16, null
  br i1 %17, label %18, label %19

18:                                               ; preds = %15, %4
  store i32 -2, ptr %5, align 4
  store i32 1, ptr %11, align 4
  br label %34

19:                                               ; preds = %15
  %20 = load ptr, ptr %10, align 8, !tbaa !25
  %21 = getelementptr inbounds nuw %struct.ma_vfs_callbacks, ptr %20, i32 0, i32 5
  %22 = load ptr, ptr %21, align 8, !tbaa !917
  %23 = icmp eq ptr %22, null
  br i1 %23, label %24, label %25

24:                                               ; preds = %19
  store i32 -29, ptr %5, align 4
  store i32 1, ptr %11, align 4
  br label %34

25:                                               ; preds = %19
  %26 = load ptr, ptr %10, align 8, !tbaa !25
  %27 = getelementptr inbounds nuw %struct.ma_vfs_callbacks, ptr %26, i32 0, i32 5
  %28 = load ptr, ptr %27, align 8, !tbaa !917
  %29 = load ptr, ptr %6, align 8, !tbaa !25
  %30 = load ptr, ptr %7, align 8, !tbaa !25
  %31 = load i64, ptr %8, align 8, !tbaa !47
  %32 = load i32, ptr %9, align 4, !tbaa !8
  %33 = call i32 %28(ptr noundef %29, ptr noundef %30, i64 noundef %31, i32 noundef %32)
  store i32 %33, ptr %5, align 4
  store i32 1, ptr %11, align 4
  br label %34

34:                                               ; preds = %25, %24, %18
  call void @llvm.lifetime.end.p0(i64 8, ptr %10) #16
  %35 = load i32, ptr %5, align 4
  ret i32 %35
}

; Function Attrs: nounwind uwtable
define i32 @ma_vfs_or_default_seek(ptr noundef %0, ptr noundef %1, i64 noundef %2, i32 noundef %3) #0 {
  %5 = alloca i32, align 4
  %6 = alloca ptr, align 8
  %7 = alloca ptr, align 8
  %8 = alloca i64, align 8
  %9 = alloca i32, align 4
  store ptr %0, ptr %6, align 8, !tbaa !25
  store ptr %1, ptr %7, align 8, !tbaa !25
  store i64 %2, ptr %8, align 8, !tbaa !47
  store i32 %3, ptr %9, align 4, !tbaa !8
  %10 = load ptr, ptr %6, align 8, !tbaa !25
  %11 = icmp ne ptr %10, null
  br i1 %11, label %12, label %18

12:                                               ; preds = %4
  %13 = load ptr, ptr %6, align 8, !tbaa !25
  %14 = load ptr, ptr %7, align 8, !tbaa !25
  %15 = load i64, ptr %8, align 8, !tbaa !47
  %16 = load i32, ptr %9, align 4, !tbaa !8
  %17 = call i32 @ma_vfs_seek(ptr noundef %13, ptr noundef %14, i64 noundef %15, i32 noundef %16)
  store i32 %17, ptr %5, align 4
  br label %24

18:                                               ; preds = %4
  %19 = load ptr, ptr %6, align 8, !tbaa !25
  %20 = load ptr, ptr %7, align 8, !tbaa !25
  %21 = load i64, ptr %8, align 8, !tbaa !47
  %22 = load i32, ptr %9, align 4, !tbaa !8
  %23 = call i32 @ma_default_vfs_seek(ptr noundef %19, ptr noundef %20, i64 noundef %21, i32 noundef %22)
  store i32 %23, ptr %5, align 4
  br label %24

24:                                               ; preds = %18, %12
  %25 = load i32, ptr %5, align 4
  ret i32 %25
}