; Function Attrs: nounwind uwtable
define i32 @ma_vfs_or_default_seek(ptr noundef %0, ptr noundef %1, i64 noundef %2, i32 noundef %3) local_unnamed_addr #7 {
  %.not = icmp eq ptr %0, null
  %5 = icmp eq ptr %1, null
  br i1 %.not, label %13, label %6

6:                                                ; preds = %4
  br i1 %5, label %ma_vfs_seek.exit, label %7

7:                                                ; preds = %6
  %8 = getelementptr inbounds nuw i8, ptr %0, i64 40
  %9 = load ptr, ptr %8, align 8, !tbaa !1101
  %10 = icmp eq ptr %9, null
  br i1 %10, label %ma_vfs_seek.exit, label %11

11:                                               ; preds = %7
  %12 = tail call i32 %9(ptr noundef nonnull %0, ptr noundef nonnull %1, i64 noundef %2, i32 noundef %3) #69
  br label %ma_vfs_seek.exit

13:                                               ; preds = %4
  br i1 %5, label %ma_vfs_seek.exit, label %14

14:                                               ; preds = %13
  %switch.selectcmp.i.i = icmp eq i32 %3, 2
  %switch.select.i.i = select i1 %switch.selectcmp.i.i, i32 2, i32 1
  %switch.selectcmp8.i.i = icmp eq i32 %3, 0
  %switch.select9.i.i = select i1 %switch.selectcmp8.i.i, i32 0, i32 %switch.select.i.i
  %15 = tail call i32 @fseek(ptr noundef nonnull %1, i64 noundef %2, i32 noundef %switch.select9.i.i)
  %.not.i.i = icmp ne i32 %15, 0
  %..i.i = sext i1 %.not.i.i to i32
  br label %ma_vfs_seek.exit

ma_vfs_seek.exit:                                 ; preds = %14, %13, %11, %7, %6
  %.0 = phi i32 [ %12, %11 ], [ -2, %6 ], [ -29, %7 ], [ %..i.i, %14 ], [ -2, %13 ]
  ret i32 %.0
}